target datalayout = "e-m:e-p270:32:32-p271:32:32-p272:64:64-i64:64-i128:128-f80:128-n8:16:32:64-S128"
target triple = "x86_64-pc-linux-gnu"

%class.Sample_SoloMesh = type <{ %class.Sample, i8, [3 x i8], float, ptr, ptr, ptr, ptr, ptr, %struct.rcConfig, [4 x i8], ptr, i32, [4 x i8] }>
%class.Sample = type { ptr, ptr, ptr, ptr, ptr, i8, float, float, float, float, float, float, float, float, float, float, float, float, float, i32, i8, i8, i8, ptr, [9 x ptr], ptr, %class.SampleDebugDraw }
%class.SampleDebugDraw = type { %class.DebugDrawGL }
%class.DebugDrawGL = type { %struct.duDebugDraw }
%struct.duDebugDraw = type { ptr }
%struct.rcConfig = type { i32, i32, i32, i32, float, float, [3 x float], [3 x float], float, i32, i32, i32, i32, float, i32, i32, i32, float, float }

; Function Attrs: mustprogress uwtable
define dso_local void @_ZN15Sample_SoloMesh7cleanupEv(ptr noundef nonnull align 8 dereferenceable(356) %0) #0 align 2 {
  %2 = alloca ptr, align 8
  store ptr %0, ptr %2, align 8
  %3 = load ptr, ptr %2, align 8
  %4 = getelementptr inbounds %class.Sample_SoloMesh, ptr %3, i32 0, i32 4
  %5 = load ptr, ptr %4, align 8
  %6 = icmp eq ptr %5, null
  br i1 %6, label %8, label %7

7:                                                ; preds = %1
  call void @_ZdaPv(ptr noundef %5) #10
  br label %8

8:                                                ; preds = %7, %1
  %9 = getelementptr inbounds %class.Sample_SoloMesh, ptr %3, i32 0, i32 4
  store ptr null, ptr %9, align 8
  %10 = getelementptr inbounds %class.Sample_SoloMesh, ptr %3, i32 0, i32 5
  %11 = load ptr, ptr %10, align 8
  call void @_Z17rcFreeHeightFieldP13rcHeightfield(ptr noundef %11)
  %12 = getelementptr inbounds %class.Sample_SoloMesh, ptr %3, i32 0, i32 5
  store ptr null, ptr %12, align 8
  %13 = getelementptr inbounds %class.Sample_SoloMesh, ptr %3, i32 0, i32 6
  %14 = load ptr, ptr %13, align 8
  call void @_Z24rcFreeCompactHeightfieldP20rcCompactHeightfield(ptr noundef %14)
  %15 = getelementptr inbounds %class.Sample_SoloMesh, ptr %3, i32 0, i32 6
  store ptr null, ptr %15, align 8
  %16 = getelementptr inbounds %class.Sample_SoloMesh, ptr %3, i32 0, i32 7
  %17 = load ptr, ptr %16, align 8
  call void @_Z16rcFreeContourSetP12rcContourSet(ptr noundef %17)
  %18 = getelementptr inbounds %class.Sample_SoloMesh, ptr %3, i32 0, i32 7
  store ptr null, ptr %18, align 8
  %19 = getelementptr inbounds %class.Sample_SoloMesh, ptr %3, i32 0, i32 8
  %20 = load ptr, ptr %19, align 8
  call void @_Z14rcFreePolyMeshP10rcPolyMesh(ptr noundef %20)
  %21 = getelementptr inbounds %class.Sample_SoloMesh, ptr %3, i32 0, i32 8
  store ptr null, ptr %21, align 8
  %22 = getelementptr inbounds %class.Sample_SoloMesh, ptr %3, i32 0, i32 11
  %23 = load ptr, ptr %22, align 8
  call void @_Z20rcFreePolyMeshDetailP16rcPolyMeshDetail(ptr noundef %23)
  %24 = getelementptr inbounds %class.Sample_SoloMesh, ptr %3, i32 0, i32 11
  store ptr null, ptr %24, align 8
  %25 = getelementptr inbounds %class.Sample, ptr %3, i32 0, i32 2
  %26 = load ptr, ptr %25, align 8
  call void @_Z13dtFreeNavMeshP9dtNavMesh(ptr noundef %26)
  %27 = getelementptr inbounds %class.Sample, ptr %3, i32 0, i32 2
  store ptr null, ptr %27, align 8
  ret void
}